target datalayout = "e-m:e-p270:32:32-p271:32:32-p272:64:64-i64:64-i128:128-f80:128-n8:16:32:64-S128"
target triple = "x86_64-pc-linux-gnu"

%"class.icu_77::CalendarAstronomer" = type <{ double, double, double, double, double, %"class.icu_77::CalendarAstronomer::Equatorial", i8, [7 x i8] }>
%"class.icu_77::CalendarAstronomer::Equatorial" = type { double, double }

; Function Attrs: inlinehint mustprogress uwtable
define internal noundef signext i8 @_ZL9isINVALIDd(double noundef %0) #3 {
  %2 = alloca double, align 8
  store double %0, ptr %2, align 8, !tbaa !15
  %3 = load double, ptr %2, align 8, !tbaa !15
  %4 = call signext i8 @uprv_isNaN_77(double noundef %3)
  ret i8 %4
}

; Function Attrs: mustprogress uwtable
define noundef double @_ZN6icu_7718CalendarAstronomer12getJulianDayEv(ptr noundef nonnull align 8 dereferenceable(57) %0) #0 align 2 {
  %2 = alloca ptr, align 8
  store ptr %0, ptr %2, align 8, !tbaa !3
  %3 = load ptr, ptr %2, align 8
  %4 = getelementptr inbounds nuw %"class.icu_77::CalendarAstronomer", ptr %3, i32 0, i32 1
  %5 = load double, ptr %4, align 8, !tbaa !18
  %6 = call noundef signext i8 @_ZL9isINVALIDd(double noundef %5)
  %7 = icmp ne i8 %6, 0
  br i1 %7, label %8, label %14

8:                                                ; preds = %1
  %9 = getelementptr inbounds nuw %"class.icu_77::CalendarAstronomer", ptr %3, i32 0, i32 0
  %10 = load double, ptr %9, align 8, !tbaa !8
  %11 = fsub double %10, 0xC2E7F907CA644000
  %12 = fdiv double %11, 8.640000e+07
  %13 = getelementptr inbounds nuw %"class.icu_77::CalendarAstronomer", ptr %3, i32 0, i32 1
  store double %12, ptr %13, align 8, !tbaa !18
  br label %14

14:                                               ; preds = %8, %1
  %15 = getelementptr inbounds nuw %"class.icu_77::CalendarAstronomer", ptr %3, i32 0, i32 1
  %16 = load double, ptr %15, align 8, !tbaa !18
  ret double %16
}