; Function Attrs: mustprogress uwtable
define noundef double @_ZN6icu_7718CalendarAstronomer12getJulianDayEv(ptr noundef nonnull align 8 captures(none) dereferenceable(57) %0) local_unnamed_addr #0 align 2 {
  %2 = getelementptr inbounds nuw i8, ptr %0, i64 8
  %3 = load double, ptr %2, align 8, !tbaa !9
  %4 = tail call noundef signext i8 @uprv_isNaN_77(double noundef %3)
  %.not = icmp eq i8 %4, 0
  br i1 %.not, label %._crit_edge, label %5

._crit_edge:                                      ; preds = %1
  %.pre = load double, ptr %2, align 8, !tbaa !9
  br label %9

5:                                                ; preds = %1
  %6 = load double, ptr %0, align 8, !tbaa !3
  %7 = fadd double %6, 0x42E7F907CA644000
  %8 = fdiv double %7, 8.640000e+07
  store double %8, ptr %2, align 8, !tbaa !9
  br label %9

9:                                                ; preds = %._crit_edge, %5
  %10 = phi double [ %.pre, %._crit_edge ], [ %8, %5 ]
  ret double %10
}